target datalayout = "e-m:e-p270:32:32-p271:32:32-p272:64:64-i64:64-i128:128-f80:128-n8:16:32:64-S128"
target triple = "x86_64-pc-linux-gnu"

%struct.mi_page_queue_s = type { ptr, ptr, i64 }
%struct.mi_subproc_s = type { i64, i64, %union.pthread_mutex_t, %union.pthread_mutex_t, ptr, ptr, %struct.mi_memid_s }
%union.pthread_mutex_t = type { %struct.__pthread_mutex_s }
%struct.__pthread_mutex_s = type { i32, i32, i32, i32, i32, i16, i16, %struct.__pthread_internal_list }
%struct.__pthread_internal_list = type { ptr, ptr }
%struct.mi_memid_s = type { %union.anon, i8, i8, i8, i32 }
%union.anon = type { %struct.mi_memid_os_info }
%struct.mi_memid_os_info = type { ptr, i64 }
%struct.mi_heap_s = type { ptr, ptr, i64, i32, i64, [2 x i64], %struct.mi_random_cxt_s, i64, i64, i64, ptr, i8, i8, [129 x ptr], [75 x %struct.mi_page_queue_s] }
%struct.mi_random_cxt_s = type { [16 x i32], [16 x i32], i32, i8 }

@_mi_heap_default = hidden thread_local(initialexec) global ptr @_mi_heap_empty, align 8
@_mi_process_is_initialized = hidden global i8 0, align 1
@mi_subproc_default = internal global %struct.mi_subproc_s zeroinitializer, align 64
@mi_process_init.process_init = internal global i64 0, align 8
@.str.1 = private unnamed_addr constant [21 x i8] c"process init: 0x%zx\0A\00", align 1
@.str.2 = private unnamed_addr constant [18 x i8] c"secure level: %d\0A\00", align 1
@.str.3 = private unnamed_addr constant [18 x i8] c"mem tracking: %s\0A\00", align 1
@.str.4 = private unnamed_addr constant [5 x i8] c"none\00", align 1
@mi_process_setup_auto_thread_done.tls_initialized = internal global i8 0, align 1

; Function Attrs: nounwind uwtable
define hidden void @_mi_heap_set_default_direct(ptr noundef %0) #0 {
  %2 = alloca ptr, align 8
  store ptr %0, ptr %2, align 8, !tbaa !3
  %3 = load ptr, ptr %2, align 8, !tbaa !3
  %4 = call align 8 ptr @llvm.threadlocal.address.p0(ptr align 8 @_mi_heap_default)
  store ptr %3, ptr %4, align 8, !tbaa !3
  %5 = load ptr, ptr %2, align 8, !tbaa !3
  call void @_mi_prim_thread_associate_default_heap(ptr noundef %5) #11
  ret void
}

; Function Attrs: inlinehint nounwind uwtable
define internal i64 @_mi_prim_thread_id() #1 {
  %1 = call ptr @llvm.thread.pointer()
  %2 = ptrtoint ptr %1 to i64
  ret i64 %2
}

; Function Attrs: nounwind uwtable
define hidden void @_mi_heap_guarded_init(ptr noundef %0) #0 {
  %2 = alloca ptr, align 8
  store ptr %0, ptr %2, align 8, !tbaa !3
  ret void
}

; Function Attrs: inlinehint nounwind uwtable
define internal void @mi_lock_init(ptr noundef %0) #1 {
  %2 = alloca ptr, align 8
  store ptr %0, ptr %2, align 8, !tbaa !27
  %3 = load ptr, ptr %2, align 8, !tbaa !27
  %4 = call i32 @pthread_mutex_init(ptr noundef %3, ptr noundef null) #13
  ret void
}

; Function Attrs: nounwind uwtable
define internal void @mi_detect_cpu_features() #0 {
  ret void
}

; Function Attrs: nounwind uwtable
define internal void @mi_process_setup_auto_thread_done() #0 {
  %1 = load i8, ptr @mi_process_setup_auto_thread_done.tls_initialized, align 1, !tbaa !21, !range !28, !noundef !29
  %2 = trunc i8 %1 to i1
  br i1 %2, label %3, label %4

3:                                                ; preds = %0
  br label %5

4:                                                ; preds = %0
  store i8 1, ptr @mi_process_setup_auto_thread_done.tls_initialized, align 1, !tbaa !21
  call void @_mi_prim_thread_init_auto_done() #11
  call void @_mi_heap_set_default_direct(ptr noundef @_mi_heap_main) #11
  br label %5

5:                                                ; preds = %4, %3
  ret void
}

; Function Attrs: nounwind uwtable
define hidden i64 @_mi_thread_id() #0 {
  %1 = call i64 @_mi_prim_thread_id() #11
  ret i64 %1
}

; Function Attrs: inlinehint nounwind uwtable
define internal zeroext i1 @mi_atomic_once(ptr noundef %0) #1 {
  %2 = alloca i1, align 1
  %3 = alloca ptr, align 8
  %4 = alloca i64, align 8
  %5 = alloca i64, align 8
  %6 = alloca i64, align 8
  %7 = alloca i8, align 1
  store ptr %0, ptr %3, align 8, !tbaa !27
  %8 = load ptr, ptr %3, align 8, !tbaa !27
  %9 = load atomic i64, ptr %8 monotonic, align 8
  store i64 %9, ptr %4, align 8
  %10 = load i64, ptr %4, align 8, !tbaa !8
  %11 = icmp ne i64 %10, 0
  br i1 %11, label %12, label %13

12:                                               ; preds = %1
  store i1 false, ptr %2, align 1
  br label %25

13:                                               ; preds = %1
  call void @llvm.lifetime.start.p0(i64 8, ptr %5) #12
  store i64 0, ptr %5, align 8, !tbaa !8
  %14 = load ptr, ptr %3, align 8, !tbaa !27
  store i64 1, ptr %6, align 8, !tbaa !8
  %15 = load i64, ptr %5, align 8
  %16 = load i64, ptr %6, align 8
  %17 = cmpxchg ptr %14, i64 %15, i64 %16 acq_rel acquire, align 8
  %18 = extractvalue { i64, i1 } %17, 0
  %19 = extractvalue { i64, i1 } %17, 1
  br i1 %19, label %21, label %20

20:                                               ; preds = %13
  store i64 %18, ptr %5, align 8
  br label %21

21:                                               ; preds = %20, %13
  %22 = zext i1 %19 to i8
  store i8 %22, ptr %7, align 1, !tbaa !21
  %23 = load i8, ptr %7, align 1, !tbaa !21, !range !28, !noundef !29
  %24 = trunc i8 %23 to i1
  store i1 %24, ptr %2, align 1
  call void @llvm.lifetime.end.p0(i64 8, ptr %5) #12
  br label %25

25:                                               ; preds = %21, %12
  %26 = load i1, ptr %2, align 1
  ret i1 %26
}

; Function Attrs: nounwind uwtable
define internal void @mi_heap_main_init() #0 {
  %1 = load i64, ptr getelementptr inbounds nuw (%struct.mi_heap_s, ptr @_mi_heap_main, i32 0, i32 4), align 32, !tbaa !10
  %2 = icmp eq i64 %1, 0
  br i1 %2, label %3, label %8

3:                                                ; preds = %0
  %4 = call i64 @_mi_thread_id() #11
  store i64 %4, ptr getelementptr inbounds nuw (%struct.mi_heap_s, ptr @_mi_heap_main, i32 0, i32 2), align 16, !tbaa !16
  store i64 1, ptr getelementptr inbounds nuw (%struct.mi_heap_s, ptr @_mi_heap_main, i32 0, i32 4), align 32, !tbaa !10
  call void @_mi_random_init(ptr noundef getelementptr inbounds nuw (%struct.mi_heap_s, ptr @_mi_heap_main, i32 0, i32 6)) #11
  %5 = call i64 @_mi_heap_random_next(ptr noundef @_mi_heap_main) #11
  store i64 %5, ptr getelementptr inbounds nuw (%struct.mi_heap_s, ptr @_mi_heap_main, i32 0, i32 4), align 32, !tbaa !10
  %6 = call i64 @_mi_heap_random_next(ptr noundef @_mi_heap_main) #11
  store i64 %6, ptr getelementptr inbounds nuw (%struct.mi_heap_s, ptr @_mi_heap_main, i32 0, i32 5), align 8, !tbaa !8
  %7 = call i64 @_mi_heap_random_next(ptr noundef @_mi_heap_main) #11
  store i64 %7, ptr getelementptr inbounds ([2 x i64], ptr getelementptr inbounds nuw (%struct.mi_heap_s, ptr @_mi_heap_main, i32 0, i32 5), i64 0, i64 1), align 8, !tbaa !8
  call void @mi_lock_init(ptr noundef getelementptr inbounds nuw (%struct.mi_subproc_s, ptr @mi_subproc_default, i32 0, i32 2)) #11
  call void @mi_lock_init(ptr noundef getelementptr inbounds nuw (%struct.mi_subproc_s, ptr @mi_subproc_default, i32 0, i32 3)) #11
  call void @_mi_heap_guarded_init(ptr noundef @_mi_heap_main) #11
  br label %8

8:                                                ; preds = %3, %0
  ret void
}

; Function Attrs: nounwind uwtable
define hidden void @mi_process_init() #0 {
  %1 = alloca i64, align 8
  %2 = alloca i64, align 8
  %3 = alloca i64, align 8
  call void @mi_heap_main_init() #11
  %4 = call zeroext i1 @mi_atomic_once(ptr noundef @mi_process_init.process_init) #11
  br i1 %4, label %6, label %5

5:                                                ; preds = %0
  br label %38

6:                                                ; preds = %0
  store i8 1, ptr @_mi_process_is_initialized, align 1, !tbaa !21
  %7 = call i64 @_mi_thread_id() #11
  call void (ptr, ...) @_mi_verbose_message(ptr noundef @.str.1, i64 noundef %7) #11
  call void @mi_process_setup_auto_thread_done() #11
  call void @mi_detect_cpu_features() #11
  call void @_mi_os_init() #11
  call void @mi_heap_main_init() #11
  call void (ptr, ...) @_mi_verbose_message(ptr noundef @.str.2, i32 noundef 0) #11
  call void (ptr, ...) @_mi_verbose_message(ptr noundef @.str.3, ptr noundef @.str.4) #11
  call void @mi_thread_init() #11
  call void @mi_stats_reset() #11
  %8 = call zeroext i1 @mi_option_is_enabled(i32 noundef 7) #11
  br i1 %8, label %9, label %27

9:                                                ; preds = %6
  call void @llvm.lifetime.start.p0(i64 8, ptr %1) #12
  %10 = call i64 @mi_option_get_clamp(i32 noundef 7, i64 noundef 0, i64 noundef 131072) #11
  store i64 %10, ptr %1, align 8, !tbaa !8
  call void @llvm.lifetime.start.p0(i64 8, ptr %2) #12
  %11 = call i64 @mi_option_get(i32 noundef 8) #11
  store i64 %11, ptr %2, align 8, !tbaa !8
  %12 = load i64, ptr %2, align 8, !tbaa !8
  %13 = icmp ne i64 %12, -1
  br i1 %13, label %14, label %21

14:                                               ; preds = %9
  %15 = load i64, ptr %1, align 8, !tbaa !8
  %16 = load i64, ptr %2, align 8, !tbaa !8
  %17 = trunc i64 %16 to i32
  %18 = load i64, ptr %1, align 8, !tbaa !8
  %19 = mul i64 %18, 500
  %20 = call i32 @mi_reserve_huge_os_pages_at(i64 noundef %15, i32 noundef %17, i64 noundef %19) #11
  br label %26

21:                                               ; preds = %9
  %22 = load i64, ptr %1, align 8, !tbaa !8
  %23 = load i64, ptr %1, align 8, !tbaa !8
  %24 = mul i64 %23, 500
  %25 = call i32 @mi_reserve_huge_os_pages_interleave(i64 noundef %22, i64 noundef 0, i64 noundef %24) #11
  br label %26

26:                                               ; preds = %21, %14
  call void @llvm.lifetime.end.p0(i64 8, ptr %2) #12
  call void @llvm.lifetime.end.p0(i64 8, ptr %1) #12
  br label %27

27:                                               ; preds = %26, %6
  %28 = call zeroext i1 @mi_option_is_enabled(i32 noundef 9) #11
  br i1 %28, label %29, label %38

29:                                               ; preds = %27
  call void @llvm.lifetime.start.p0(i64 8, ptr %3) #12
  %30 = call i64 @mi_option_get(i32 noundef 9) #11
  store i64 %30, ptr %3, align 8, !tbaa !8
  %31 = load i64, ptr %3, align 8, !tbaa !8
  %32 = icmp sgt i64 %31, 0
  br i1 %32, label %33, label %37

33:                                               ; preds = %29
  %34 = load i64, ptr %3, align 8, !tbaa !8
  %35 = mul i64 %34, 1024
  %36 = call i32 @mi_reserve_os_memory(i64 noundef %35, i1 noundef zeroext true, i1 noundef zeroext true) #11
  br label %37

37:                                               ; preds = %33, %29
  call void @llvm.lifetime.end.p0(i64 8, ptr %3) #12
  br label %38

38:                                               ; preds = %5, %37, %27
  ret void
}