; Function Attrs: nounwind uwtable
define hidden void @mi_process_init() local_unnamed_addr #1 {
  %1 = load i64, ptr getelementptr inbounds nuw (i8, ptr @_mi_heap_main, i64 32), align 32, !tbaa !3
  %2 = icmp eq i64 %1, 0
  br i1 %2, label %3, label %mi_heap_main_init.exit

3:                                                ; preds = %0
  %4 = tail call ptr @llvm.thread.pointer()
  %5 = ptrtoint ptr %4 to i64
  store i64 %5, ptr getelementptr inbounds nuw (i8, ptr @_mi_heap_main, i64 16), align 16, !tbaa !14
  store i64 1, ptr getelementptr inbounds nuw (i8, ptr @_mi_heap_main, i64 32), align 32, !tbaa !3
  tail call void @_mi_random_init(ptr noundef nonnull getelementptr inbounds nuw (i8, ptr @_mi_heap_main, i64 56)) #14
  %6 = tail call i64 @_mi_heap_random_next(ptr noundef nonnull @_mi_heap_main) #14
  store i64 %6, ptr getelementptr inbounds nuw (i8, ptr @_mi_heap_main, i64 32), align 32, !tbaa !3
  %7 = tail call i64 @_mi_heap_random_next(ptr noundef nonnull @_mi_heap_main) #14
  store i64 %7, ptr getelementptr inbounds nuw (i8, ptr @_mi_heap_main, i64 40), align 8, !tbaa !15
  %8 = tail call i64 @_mi_heap_random_next(ptr noundef nonnull @_mi_heap_main) #14
  store i64 %8, ptr getelementptr inbounds nuw (i8, ptr @_mi_heap_main, i64 48), align 16, !tbaa !15
  %9 = tail call i32 @pthread_mutex_init(ptr noundef nonnull getelementptr inbounds nuw (i8, ptr @mi_subproc_default, i64 16), ptr noundef null) #14
  %10 = tail call i32 @pthread_mutex_init(ptr noundef nonnull getelementptr inbounds nuw (i8, ptr @mi_subproc_default, i64 56), ptr noundef null) #14
  br label %mi_heap_main_init.exit

mi_heap_main_init.exit:                           ; preds = %0, %3
  %11 = load atomic i64, ptr @mi_process_init.process_init monotonic, align 8
  %.not.i = icmp eq i64 %11, 0
  br i1 %.not.i, label %mi_atomic_once.exit, label %mi_atomic_once.exit.thread

mi_atomic_once.exit:                              ; preds = %mi_heap_main_init.exit
  %12 = cmpxchg ptr @mi_process_init.process_init, i64 0, i64 1 acq_rel acquire, align 8
  %13 = extractvalue { i64, i1 } %12, 1
  br i1 %13, label %14, label %mi_atomic_once.exit.thread

14:                                               ; preds = %mi_atomic_once.exit
  store i8 1, ptr @_mi_process_is_initialized, align 1, !tbaa !23
  %15 = tail call ptr @llvm.thread.pointer()
  %16 = ptrtoint ptr %15 to i64
  tail call void (ptr, ...) @_mi_verbose_message(ptr noundef nonnull @.str.1, i64 noundef %16) #14
  %.b1.i = load i1, ptr @mi_process_setup_auto_thread_done.tls_initialized, align 1
  br i1 %.b1.i, label %mi_process_setup_auto_thread_done.exit, label %17

17:                                               ; preds = %14
  store i1 true, ptr @mi_process_setup_auto_thread_done.tls_initialized, align 1
  tail call void @_mi_prim_thread_init_auto_done() #14
  %18 = tail call align 8 ptr @llvm.threadlocal.address.p0(ptr align 8 @_mi_heap_default)
  store ptr @_mi_heap_main, ptr %18, align 8, !tbaa !46
  tail call void @_mi_prim_thread_associate_default_heap(ptr noundef nonnull @_mi_heap_main) #14
  br label %mi_process_setup_auto_thread_done.exit

mi_process_setup_auto_thread_done.exit:           ; preds = %14, %17
  tail call void @_mi_os_init() #14
  %19 = load i64, ptr getelementptr inbounds nuw (i8, ptr @_mi_heap_main, i64 32), align 32, !tbaa !3
  %20 = icmp eq i64 %19, 0
  br i1 %20, label %21, label %mi_heap_main_init.exit9

21:                                               ; preds = %mi_process_setup_auto_thread_done.exit
  store i64 %16, ptr getelementptr inbounds nuw (i8, ptr @_mi_heap_main, i64 16), align 16, !tbaa !14
  store i64 1, ptr getelementptr inbounds nuw (i8, ptr @_mi_heap_main, i64 32), align 32, !tbaa !3
  tail call void @_mi_random_init(ptr noundef nonnull getelementptr inbounds nuw (i8, ptr @_mi_heap_main, i64 56)) #14
  %22 = tail call i64 @_mi_heap_random_next(ptr noundef nonnull @_mi_heap_main) #14
  store i64 %22, ptr getelementptr inbounds nuw (i8, ptr @_mi_heap_main, i64 32), align 32, !tbaa !3
  %23 = tail call i64 @_mi_heap_random_next(ptr noundef nonnull @_mi_heap_main) #14
  store i64 %23, ptr getelementptr inbounds nuw (i8, ptr @_mi_heap_main, i64 40), align 8, !tbaa !15
  %24 = tail call i64 @_mi_heap_random_next(ptr noundef nonnull @_mi_heap_main) #14
  store i64 %24, ptr getelementptr inbounds nuw (i8, ptr @_mi_heap_main, i64 48), align 16, !tbaa !15
  %25 = tail call i32 @pthread_mutex_init(ptr noundef nonnull getelementptr inbounds nuw (i8, ptr @mi_subproc_default, i64 16), ptr noundef null) #14
  %26 = tail call i32 @pthread_mutex_init(ptr noundef nonnull getelementptr inbounds nuw (i8, ptr @mi_subproc_default, i64 56), ptr noundef null) #14
  br label %mi_heap_main_init.exit9

mi_heap_main_init.exit9:                          ; preds = %mi_process_setup_auto_thread_done.exit, %21
  tail call void (ptr, ...) @_mi_verbose_message(ptr noundef nonnull @.str.2, i32 noundef 0) #14
  tail call void (ptr, ...) @_mi_verbose_message(ptr noundef nonnull @.str.3, ptr noundef nonnull @.str.4) #14
  tail call void @mi_thread_init() #16
  tail call void @mi_stats_reset() #14
  %27 = tail call zeroext i1 @mi_option_is_enabled(i32 noundef 7) #14
  br i1 %27, label %28, label %38

28:                                               ; preds = %mi_heap_main_init.exit9
  %29 = tail call i64 @mi_option_get_clamp(i32 noundef 7, i64 noundef 0, i64 noundef 131072) #14
  %30 = tail call i64 @mi_option_get(i32 noundef 8) #14
  %.not = icmp eq i64 %30, -1
  br i1 %.not, label %35, label %31

31:                                               ; preds = %28
  %32 = trunc i64 %30 to i32
  %33 = mul i64 %29, 500
  %34 = tail call i32 @mi_reserve_huge_os_pages_at(i64 noundef %29, i32 noundef %32, i64 noundef %33) #14
  br label %38

35:                                               ; preds = %28
  %36 = mul i64 %29, 500
  %37 = tail call i32 @mi_reserve_huge_os_pages_interleave(i64 noundef %29, i64 noundef 0, i64 noundef %36) #14
  br label %38

38:                                               ; preds = %31, %35, %mi_heap_main_init.exit9
  %39 = tail call zeroext i1 @mi_option_is_enabled(i32 noundef 9) #14
  br i1 %39, label %40, label %mi_atomic_once.exit.thread

40:                                               ; preds = %38
  %41 = tail call i64 @mi_option_get(i32 noundef 9) #14
  %42 = icmp sgt i64 %41, 0
  br i1 %42, label %43, label %mi_atomic_once.exit.thread

43:                                               ; preds = %40
  %44 = shl i64 %41, 10
  %45 = tail call i32 @mi_reserve_os_memory(i64 noundef %44, i1 noundef zeroext true, i1 noundef zeroext true) #14
  br label %mi_atomic_once.exit.thread

mi_atomic_once.exit.thread:                       ; preds = %mi_heap_main_init.exit, %40, %43, %mi_atomic_once.exit, %38
  ret void
}